; Function Attrs: nounwind uwtable
define noalias noundef ptr @Gia_ManClasses2Flops(ptr noundef readonly captures(none) %0) local_unnamed_addr #2 {
  %2 = tail call noalias dereferenceable_or_null(16) ptr @malloc(i64 noundef 16) #21
  %3 = getelementptr inbounds nuw i8, ptr %2, i64 4
  store i32 0, ptr %3, align 4
  store i32 100, ptr %2, align 8
  %4 = tail call noalias dereferenceable_or_null(400) ptr @malloc(i64 noundef 400) #21
  %5 = getelementptr inbounds nuw i8, ptr %2, i64 8
  store ptr %4, ptr %5, align 8
  %6 = getelementptr i8, ptr %0, i64 4
  %.val89 = load i32, ptr %6, align 4
  %7 = icmp sgt i32 %.val89, 0
  br i1 %7, label %.lr.ph, label %.critedge

.lr.ph:                                           ; preds = %1
  %8 = getelementptr i8, ptr %0, i64 8
  br label %9

9:                                                ; preds = %.lr.ph, %41
  %.val812 = phi i32 [ %.val89, %.lr.ph ], [ %.val8, %41 ]
  %indvars.iv = phi i64 [ 0, %.lr.ph ], [ %indvars.iv.next, %41 ]
  %.val = load ptr, ptr %8, align 8
  %10 = getelementptr inbounds nuw i32, ptr %.val, i64 %indvars.iv
  %11 = load i32, ptr %10, align 4
  %.not = icmp eq i32 %11, 0
  br i1 %.not, label %41, label %12

12:                                               ; preds = %9
  %13 = load i32, ptr %3, align 4
  %14 = load i32, ptr %2, align 8
  %15 = icmp eq i32 %13, %14
  br i1 %15, label %16, label %.Vec_IntGrow.exit10_crit_edge.i

.Vec_IntGrow.exit10_crit_edge.i:                  ; preds = %12
  %.pre.i = load ptr, ptr %5, align 8
  br label %Vec_IntPush.exit

16:                                               ; preds = %12
  %17 = icmp slt i32 %13, 16
  br i1 %17, label %18, label %25

18:                                               ; preds = %16
  %19 = load ptr, ptr %5, align 8
  %.not9.i.i = icmp eq ptr %19, null
  br i1 %.not9.i.i, label %22, label %20

20:                                               ; preds = %18
  %21 = tail call dereferenceable_or_null(64) ptr @realloc(ptr noundef nonnull %19, i64 noundef 64) #20
  br label %Vec_IntGrow.exit.i

22:                                               ; preds = %18
  %23 = tail call noalias dereferenceable_or_null(64) ptr @malloc(i64 noundef 64) #21
  br label %Vec_IntGrow.exit.i

Vec_IntGrow.exit.i:                               ; preds = %22, %20
  %24 = phi ptr [ %21, %20 ], [ %23, %22 ]
  store ptr %24, ptr %5, align 8
  store i32 16, ptr %2, align 8
  br label %Vec_IntPush.exit

25:                                               ; preds = %16
  %26 = shl nuw nsw i32 %13, 1
  %27 = load ptr, ptr %5, align 8
  %.not9.i9.i = icmp eq ptr %27, null
  %28 = zext nneg i32 %26 to i64
  %29 = shl nuw nsw i64 %28, 2
  br i1 %.not9.i9.i, label %32, label %30

30:                                               ; preds = %25
  %31 = tail call ptr @realloc(ptr noundef nonnull %27, i64 noundef %29) #20
  br label %34

32:                                               ; preds = %25
  %33 = tail call noalias ptr @malloc(i64 noundef %29) #21
  br label %34

34:                                               ; preds = %32, %30
  %35 = phi ptr [ %31, %30 ], [ %33, %32 ]
  store ptr %35, ptr %5, align 8
  store i32 %26, ptr %2, align 8
  br label %Vec_IntPush.exit

Vec_IntPush.exit:                                 ; preds = %.Vec_IntGrow.exit10_crit_edge.i, %Vec_IntGrow.exit.i, %34
  %36 = phi ptr [ %.pre.i, %.Vec_IntGrow.exit10_crit_edge.i ], [ %35, %34 ], [ %24, %Vec_IntGrow.exit.i ]
  %37 = add nsw i32 %13, 1
  store i32 %37, ptr %3, align 4
  %38 = sext i32 %13 to i64
  %39 = getelementptr inbounds i32, ptr %36, i64 %38
  %40 = trunc nuw nsw i64 %indvars.iv to i32
  store i32 %40, ptr %39, align 4
  %.val8.pre = load i32, ptr %6, align 4
  br label %41

41:                                               ; preds = %9, %Vec_IntPush.exit
  %.val8 = phi i32 [ %.val812, %9 ], [ %.val8.pre, %Vec_IntPush.exit ]
  %indvars.iv.next = add nuw nsw i64 %indvars.iv, 1
  %42 = sext i32 %.val8 to i64
  %43 = icmp slt i64 %indvars.iv.next, %42
  br i1 %43, label %9, label %.critedge, !llvm.loop !13

.critedge:                                        ; preds = %41, %1
  ret ptr %2
}